; Function Attrs: null_pointer_is_valid sspstrong uwtable
define internal i32 @dissect_diameter_eap_payload(ptr noundef %0, ptr noundef %1, ptr noundef %2, ptr readnone captures(none) %3) #0 {
  %5 = getelementptr inbounds nuw i8, ptr %1, i64 8
  %6 = load ptr, ptr %5, align 8
  %7 = tail call zeroext i1 @col_get_writable(ptr noundef %6, i32 noundef 35)
  %8 = load ptr, ptr %5, align 8
  tail call void @col_set_writable(ptr noundef %8, i32 noundef 35, i1 noundef zeroext false)
  %9 = load ptr, ptr @eap_handle, align 8
  %10 = tail call i32 @call_dissector(ptr noundef %9, ptr noundef %0, ptr noundef %1, ptr noundef %2)
  %11 = load ptr, ptr %5, align 8
  tail call void @col_set_writable(ptr noundef %11, i32 noundef 35, i1 noundef zeroext %7)
  %12 = tail call i32 @tvb_reported_length(ptr noundef %0)
  ret i32 %12
}